target datalayout = "e-m:e-p270:32:32-p271:32:32-p272:64:64-i64:64-i128:128-f80:128-n8:16:32:64-S128"
target triple = "x86_64-unknown-linux-gnu"

%"class.QuantLib::Date" = type { i64 }
%"class.QuantLib::Bond::Price" = type <{ double, i32, [4 x i8] }>

; Function Attrs: mustprogress nounwind uwtable
define linkonce_odr void @_ZN8QuantLib4Bond5PriceC2EdNS1_4TypeE(ptr noundef nonnull align 8 dereferenceable(12) %this, double noundef %amount, i32 noundef %type) unnamed_addr #1 comdat align 2 {
entry:
  %this.addr = alloca ptr, align 8
  %amount.addr = alloca double, align 8
  %type.addr = alloca i32, align 4
  store ptr %this, ptr %this.addr, align 8, !tbaa !3
  store double %amount, ptr %amount.addr, align 8, !tbaa !62
  store i32 %type, ptr %type.addr, align 4, !tbaa !81
  %this1 = load ptr, ptr %this.addr, align 8
  %amount_ = getelementptr inbounds nuw %"class.QuantLib::Bond::Price", ptr %this1, i32 0, i32 0
  %0 = load double, ptr %amount.addr, align 8, !tbaa !62
  store double %0, ptr %amount_, align 8, !tbaa !84
  %type_ = getelementptr inbounds nuw %"class.QuantLib::Bond::Price", ptr %this1, i32 0, i32 1
  %1 = load i32, ptr %type.addr, align 4, !tbaa !81
  store i32 %1, ptr %type_, align 8, !tbaa !86
  ret void
}

; Function Attrs: mustprogress uwtable
define noundef double @_ZNK8QuantLib4Bond10dirtyPriceEv(ptr noundef nonnull align 8 dereferenceable(248) %this) #2 align 2 {
entry:
  %retval = alloca double, align 8
  %this.addr = alloca ptr, align 8
  %currentNotional = alloca double, align 8
  %agg.tmp = alloca %"class.QuantLib::Date", align 8
  %agg.tmp2 = alloca %"class.QuantLib::Date", align 8
  %cleanup.dest.slot = alloca i32, align 4
  store ptr %this, ptr %this.addr, align 8, !tbaa !3
  %this1 = load ptr, ptr %this.addr, align 8
  call void @llvm.lifetime.start.p0(i64 8, ptr %currentNotional) #17
  call void @_ZN8QuantLib4DateC1Ev(ptr noundef nonnull align 8 dereferenceable(8) %agg.tmp2)
  %coerce.dive = getelementptr inbounds nuw %"class.QuantLib::Date", ptr %agg.tmp2, i32 0, i32 0
  %0 = load i64, ptr %coerce.dive, align 8
  %call = call i64 @_ZNK8QuantLib4Bond14settlementDateENS_4DateE(ptr noundef nonnull align 8 dereferenceable(248) %this1, i64 %0)
  %coerce.dive3 = getelementptr inbounds nuw %"class.QuantLib::Date", ptr %agg.tmp, i32 0, i32 0
  store i64 %call, ptr %coerce.dive3, align 8
  %coerce.dive4 = getelementptr inbounds nuw %"class.QuantLib::Date", ptr %agg.tmp, i32 0, i32 0
  %1 = load i64, ptr %coerce.dive4, align 8
  %vtable = load ptr, ptr %this1, align 8, !tbaa !20
  %vfn = getelementptr inbounds ptr, ptr %vtable, i64 10
  %2 = load ptr, ptr %vfn, align 8
  %call5 = call noundef double %2(ptr noundef nonnull align 8 dereferenceable(248) %this1, i64 %1)
  store double %call5, ptr %currentNotional, align 8, !tbaa !62
  %3 = load double, ptr %currentNotional, align 8, !tbaa !62
  %cmp = fcmp oeq double %3, 0.000000e+00
  br i1 %cmp, label %if.then, label %if.else

if.then:                                          ; preds = %entry
  store double 0.000000e+00, ptr %retval, align 8
  store i32 1, ptr %cleanup.dest.slot, align 4
  br label %cleanup

if.else:                                          ; preds = %entry
  %call6 = call noundef double @_ZNK8QuantLib4Bond15settlementValueEv(ptr noundef nonnull align 8 dereferenceable(248) %this1)
  %mul = fmul double %call6, 1.000000e+02
  %4 = load double, ptr %currentNotional, align 8, !tbaa !62
  %div = fdiv double %mul, %4
  store double %div, ptr %retval, align 8
  store i32 1, ptr %cleanup.dest.slot, align 4
  br label %cleanup

cleanup:                                          ; preds = %if.else, %if.then
  call void @llvm.lifetime.end.p0(i64 8, ptr %currentNotional) #17
  %5 = load double, ptr %retval, align 8
  ret double %5
}

; Function Attrs: mustprogress uwtable
define noundef double @_ZNK8QuantLib4Bond10cleanPriceEv(ptr noundef nonnull align 8 dereferenceable(248) %this) #2 align 2 {
entry:
  %this.addr = alloca ptr, align 8
  %agg.tmp = alloca %"class.QuantLib::Date", align 8
  %agg.tmp2 = alloca %"class.QuantLib::Date", align 8
  store ptr %this, ptr %this.addr, align 8, !tbaa !3
  %this1 = load ptr, ptr %this.addr, align 8
  %call = call noundef double @_ZNK8QuantLib4Bond10dirtyPriceEv(ptr noundef nonnull align 8 dereferenceable(248) %this1)
  call void @_ZN8QuantLib4DateC1Ev(ptr noundef nonnull align 8 dereferenceable(8) %agg.tmp2)
  %coerce.dive = getelementptr inbounds nuw %"class.QuantLib::Date", ptr %agg.tmp2, i32 0, i32 0
  %0 = load i64, ptr %coerce.dive, align 8
  %call3 = call i64 @_ZNK8QuantLib4Bond14settlementDateENS_4DateE(ptr noundef nonnull align 8 dereferenceable(248) %this1, i64 %0)
  %coerce.dive4 = getelementptr inbounds nuw %"class.QuantLib::Date", ptr %agg.tmp, i32 0, i32 0
  store i64 %call3, ptr %coerce.dive4, align 8
  %coerce.dive5 = getelementptr inbounds nuw %"class.QuantLib::Date", ptr %agg.tmp, i32 0, i32 0
  %1 = load i64, ptr %coerce.dive5, align 8
  %vtable = load ptr, ptr %this1, align 8, !tbaa !20
  %vfn = getelementptr inbounds ptr, ptr %vtable, i64 11
  %2 = load ptr, ptr %vfn, align 8
  %call6 = call noundef double %2(ptr noundef nonnull align 8 dereferenceable(248) %this1, i64 %1)
  %sub = fsub double %call, %call6
  ret double %sub
}

; Function Attrs: mustprogress uwtable
define noundef double @_ZNK8QuantLib4Bond5yieldERKNS_10DayCounterENS_11CompoundingENS_9FrequencyEdmdNS0_5Price4TypeE(ptr noundef nonnull align 8 dereferenceable(248) %this, ptr noundef nonnull align 8 dereferenceable(16) %dc, i32 noundef %comp, i32 noundef %freq, double noundef %accuracy, i64 noundef %maxEvaluations, double noundef %guess, i32 noundef %priceType) #2 align 2 {
entry:
  %retval = alloca double, align 8
  %this.addr = alloca ptr, align 8
  %dc.addr = alloca ptr, align 8
  %comp.addr = alloca i32, align 4
  %freq.addr = alloca i32, align 4
  %accuracy.addr = alloca double, align 8
  %maxEvaluations.addr = alloca i64, align 8
  %guess.addr = alloca double, align 8
  %priceType.addr = alloca i32, align 4
  %currentNotional = alloca double, align 8
  %agg.tmp = alloca %"class.QuantLib::Date", align 8
  %agg.tmp2 = alloca %"class.QuantLib::Date", align 8
  %cleanup.dest.slot = alloca i32, align 4
  %price = alloca %"class.QuantLib::Bond::Price", align 8
  %agg.tmp9 = alloca %"class.QuantLib::Bond::Price", align 8
  %agg.tmp10 = alloca %"class.QuantLib::Date", align 8
  %agg.tmp11 = alloca %"class.QuantLib::Date", align 8
  store ptr %this, ptr %this.addr, align 8, !tbaa !3
  store ptr %dc, ptr %dc.addr, align 8, !tbaa !3
  store i32 %comp, ptr %comp.addr, align 4, !tbaa !77
  store i32 %freq, ptr %freq.addr, align 4, !tbaa !79
  store double %accuracy, ptr %accuracy.addr, align 8, !tbaa !62
  store i64 %maxEvaluations, ptr %maxEvaluations.addr, align 8, !tbaa !56
  store double %guess, ptr %guess.addr, align 8, !tbaa !62
  store i32 %priceType, ptr %priceType.addr, align 4, !tbaa !81
  %this1 = load ptr, ptr %this.addr, align 8
  call void @llvm.lifetime.start.p0(i64 8, ptr %currentNotional) #17
  call void @_ZN8QuantLib4DateC1Ev(ptr noundef nonnull align 8 dereferenceable(8) %agg.tmp2)
  %coerce.dive = getelementptr inbounds nuw %"class.QuantLib::Date", ptr %agg.tmp2, i32 0, i32 0
  %0 = load i64, ptr %coerce.dive, align 8
  %call = call i64 @_ZNK8QuantLib4Bond14settlementDateENS_4DateE(ptr noundef nonnull align 8 dereferenceable(248) %this1, i64 %0)
  %coerce.dive3 = getelementptr inbounds nuw %"class.QuantLib::Date", ptr %agg.tmp, i32 0, i32 0
  store i64 %call, ptr %coerce.dive3, align 8
  %coerce.dive4 = getelementptr inbounds nuw %"class.QuantLib::Date", ptr %agg.tmp, i32 0, i32 0
  %1 = load i64, ptr %coerce.dive4, align 8
  %vtable = load ptr, ptr %this1, align 8, !tbaa !20
  %vfn = getelementptr inbounds ptr, ptr %vtable, i64 10
  %2 = load ptr, ptr %vfn, align 8
  %call5 = call noundef double %2(ptr noundef nonnull align 8 dereferenceable(248) %this1, i64 %1)
  store double %call5, ptr %currentNotional, align 8, !tbaa !62
  %3 = load double, ptr %currentNotional, align 8, !tbaa !62
  %cmp = fcmp oeq double %3, 0.000000e+00
  br i1 %cmp, label %if.then, label %if.end

if.then:                                          ; preds = %entry
  store double 0.000000e+00, ptr %retval, align 8
  store i32 1, ptr %cleanup.dest.slot, align 4
  br label %cleanup

if.end:                                           ; preds = %entry
  call void @llvm.lifetime.start.p0(i64 16, ptr %price) #17
  %4 = load i32, ptr %priceType.addr, align 4, !tbaa !81
  %cmp6 = icmp eq i32 %4, 1
  br i1 %cmp6, label %cond.true, label %cond.false

cond.true:                                        ; preds = %if.end
  %call7 = call noundef double @_ZNK8QuantLib4Bond10cleanPriceEv(ptr noundef nonnull align 8 dereferenceable(248) %this1)
  br label %cond.end

cond.false:                                       ; preds = %if.end
  %call8 = call noundef double @_ZNK8QuantLib4Bond10dirtyPriceEv(ptr noundef nonnull align 8 dereferenceable(248) %this1)
  br label %cond.end

cond.end:                                         ; preds = %cond.false, %cond.true
  %cond = phi double [ %call7, %cond.true ], [ %call8, %cond.false ]
  %5 = load i32, ptr %priceType.addr, align 4, !tbaa !81
  call void @_ZN8QuantLib4Bond5PriceC2EdNS1_4TypeE(ptr noundef nonnull align 8 dereferenceable(12) %price, double noundef %cond, i32 noundef %5)
  call void @llvm.memcpy.p0.p0.i64(ptr align 8 %agg.tmp9, ptr align 8 %price, i64 16, i1 false), !tbaa.struct !83
  %6 = load ptr, ptr %dc.addr, align 8, !tbaa !3
  %7 = load i32, ptr %comp.addr, align 4, !tbaa !77
  %8 = load i32, ptr %freq.addr, align 4, !tbaa !79
  call void @_ZN8QuantLib4DateC1Ev(ptr noundef nonnull align 8 dereferenceable(8) %agg.tmp11)
  %coerce.dive12 = getelementptr inbounds nuw %"class.QuantLib::Date", ptr %agg.tmp11, i32 0, i32 0
  %9 = load i64, ptr %coerce.dive12, align 8
  %call13 = call i64 @_ZNK8QuantLib4Bond14settlementDateENS_4DateE(ptr noundef nonnull align 8 dereferenceable(248) %this1, i64 %9)
  %coerce.dive14 = getelementptr inbounds nuw %"class.QuantLib::Date", ptr %agg.tmp10, i32 0, i32 0
  store i64 %call13, ptr %coerce.dive14, align 8
  %10 = load double, ptr %accuracy.addr, align 8, !tbaa !62
  %11 = load i64, ptr %maxEvaluations.addr, align 8, !tbaa !56
  %12 = load double, ptr %guess.addr, align 8, !tbaa !62
  %13 = getelementptr inbounds nuw { double, i32 }, ptr %agg.tmp9, i32 0, i32 0
  %14 = load double, ptr %13, align 8
  %15 = getelementptr inbounds nuw { double, i32 }, ptr %agg.tmp9, i32 0, i32 1
  %16 = load i32, ptr %15, align 8
  %coerce.dive15 = getelementptr inbounds nuw %"class.QuantLib::Date", ptr %agg.tmp10, i32 0, i32 0
  %17 = load i64, ptr %coerce.dive15, align 8
  %call16 = call noundef double @_ZN8QuantLib13BondFunctions5yieldERKNS_4BondENS1_5PriceERKNS_10DayCounterENS_11CompoundingENS_9FrequencyENS_4DateEdmd(ptr noundef nonnull align 8 dereferenceable(248) %this1, double %14, i32 %16, ptr noundef nonnull align 8 dereferenceable(16) %6, i32 noundef %7, i32 noundef %8, i64 %17, double noundef %10, i64 noundef %11, double noundef %12)
  store double %call16, ptr %retval, align 8
  store i32 1, ptr %cleanup.dest.slot, align 4
  call void @llvm.lifetime.end.p0(i64 16, ptr %price) #17
  br label %cleanup

cleanup:                                          ; preds = %cond.end, %if.then
  call void @llvm.lifetime.end.p0(i64 8, ptr %currentNotional) #17
  %18 = load double, ptr %retval, align 8
  ret double %18
}