; Function Attrs: mustprogress uwtable
define noundef double @_ZNK8QuantLib4Bond5yieldERKNS_10DayCounterENS_11CompoundingENS_9FrequencyEdmdNS0_5Price4TypeE(ptr noundef nonnull align 8 dereferenceable(248) %this, ptr noundef nonnull align 8 dereferenceable(16) %dc, i32 noundef %comp, i32 noundef %freq, double noundef %accuracy, i64 noundef %maxEvaluations, double noundef %guess, i32 noundef %priceType) local_unnamed_addr #9 align 2 {
entry:
  %agg.tmp2.i2 = alloca %"class.QuantLib::Date", align 8
  %agg.tmp2.i.i = alloca %"class.QuantLib::Date", align 8
  %agg.tmp2.i = alloca %"class.QuantLib::Date", align 8
  %agg.tmp2 = alloca %"class.QuantLib::Date", align 8
  %agg.tmp11 = alloca %"class.QuantLib::Date", align 8
  call void @_ZN8QuantLib4DateC1Ev(ptr noundef nonnull align 8 dereferenceable(8) %agg.tmp2)
  %0 = load i64, ptr %agg.tmp2, align 8
  %call = call i64 @_ZNK8QuantLib4Bond14settlementDateENS_4DateE(ptr noundef nonnull align 8 dereferenceable(248) %this, i64 %0)
  %vtable = load ptr, ptr %this, align 8, !tbaa !33
  %vfn = getelementptr inbounds i8, ptr %vtable, i64 80
  %1 = load ptr, ptr %vfn, align 8
  %call5 = call noundef double %1(ptr noundef nonnull align 8 dereferenceable(248) %this, i64 %call)
  %cmp = fcmp oeq double %call5, 0.000000e+00
  br i1 %cmp, label %cleanup, label %if.end

if.end:                                           ; preds = %entry
  %cmp6 = icmp eq i32 %priceType, 1
  br i1 %cmp6, label %cond.true, label %cond.false

cond.true:                                        ; preds = %if.end
  call void @llvm.lifetime.start.p0(i64 8, ptr nonnull %agg.tmp2.i)
  call void @llvm.lifetime.start.p0(i64 8, ptr nonnull %agg.tmp2.i.i)
  call void @_ZN8QuantLib4DateC1Ev(ptr noundef nonnull align 8 dereferenceable(8) %agg.tmp2.i.i)
  %2 = load i64, ptr %agg.tmp2.i.i, align 8
  %call.i.i = call i64 @_ZNK8QuantLib4Bond14settlementDateENS_4DateE(ptr noundef nonnull align 8 dereferenceable(248) %this, i64 %2)
  %vtable.i.i = load ptr, ptr %this, align 8, !tbaa !33
  %vfn.i.i = getelementptr inbounds i8, ptr %vtable.i.i, i64 80
  %3 = load ptr, ptr %vfn.i.i, align 8
  %call5.i.i = call noundef double %3(ptr noundef nonnull align 8 dereferenceable(248) %this, i64 %call.i.i)
  %cmp.i.i = fcmp oeq double %call5.i.i, 0.000000e+00
  br i1 %cmp.i.i, label %_ZNK8QuantLib4Bond10cleanPriceEv.exit, label %if.else.i.i

if.else.i.i:                                      ; preds = %cond.true
  %call6.i.i = call noundef double @_ZNK8QuantLib4Bond15settlementValueEv(ptr noundef nonnull align 8 dereferenceable(248) %this)
  %mul.i.i = fmul double %call6.i.i, 1.000000e+02
  %div.i.i = fdiv double %mul.i.i, %call5.i.i
  br label %_ZNK8QuantLib4Bond10cleanPriceEv.exit

_ZNK8QuantLib4Bond10cleanPriceEv.exit:            ; preds = %cond.true, %if.else.i.i
  %retval.0.i.i = phi double [ %div.i.i, %if.else.i.i ], [ 0.000000e+00, %cond.true ]
  call void @llvm.lifetime.end.p0(i64 8, ptr nonnull %agg.tmp2.i.i)
  call void @_ZN8QuantLib4DateC1Ev(ptr noundef nonnull align 8 dereferenceable(8) %agg.tmp2.i)
  %4 = load i64, ptr %agg.tmp2.i, align 8
  %call3.i = call i64 @_ZNK8QuantLib4Bond14settlementDateENS_4DateE(ptr noundef nonnull align 8 dereferenceable(248) %this, i64 %4)
  %vtable.i = load ptr, ptr %this, align 8, !tbaa !33
  %vfn.i = getelementptr inbounds i8, ptr %vtable.i, i64 88
  %5 = load ptr, ptr %vfn.i, align 8
  %call6.i = call noundef double %5(ptr noundef nonnull align 8 dereferenceable(248) %this, i64 %call3.i)
  %sub.i = fsub double %retval.0.i.i, %call6.i
  call void @llvm.lifetime.end.p0(i64 8, ptr nonnull %agg.tmp2.i)
  br label %cond.end

cond.false:                                       ; preds = %if.end
  call void @llvm.lifetime.start.p0(i64 8, ptr nonnull %agg.tmp2.i2)
  call void @_ZN8QuantLib4DateC1Ev(ptr noundef nonnull align 8 dereferenceable(8) %agg.tmp2.i2)
  %6 = load i64, ptr %agg.tmp2.i2, align 8
  %call.i = call i64 @_ZNK8QuantLib4Bond14settlementDateENS_4DateE(ptr noundef nonnull align 8 dereferenceable(248) %this, i64 %6)
  %vtable.i3 = load ptr, ptr %this, align 8, !tbaa !33
  %vfn.i4 = getelementptr inbounds i8, ptr %vtable.i3, i64 80
  %7 = load ptr, ptr %vfn.i4, align 8
  %call5.i = call noundef double %7(ptr noundef nonnull align 8 dereferenceable(248) %this, i64 %call.i)
  %cmp.i = fcmp oeq double %call5.i, 0.000000e+00
  br i1 %cmp.i, label %_ZNK8QuantLib4Bond10dirtyPriceEv.exit, label %if.else.i

if.else.i:                                        ; preds = %cond.false
  %call6.i5 = call noundef double @_ZNK8QuantLib4Bond15settlementValueEv(ptr noundef nonnull align 8 dereferenceable(248) %this)
  %mul.i = fmul double %call6.i5, 1.000000e+02
  %div.i = fdiv double %mul.i, %call5.i
  br label %_ZNK8QuantLib4Bond10dirtyPriceEv.exit

_ZNK8QuantLib4Bond10dirtyPriceEv.exit:            ; preds = %cond.false, %if.else.i
  %retval.0.i = phi double [ %div.i, %if.else.i ], [ 0.000000e+00, %cond.false ]
  call void @llvm.lifetime.end.p0(i64 8, ptr nonnull %agg.tmp2.i2)
  br label %cond.end

cond.end:                                         ; preds = %_ZNK8QuantLib4Bond10dirtyPriceEv.exit, %_ZNK8QuantLib4Bond10cleanPriceEv.exit
  %price.sroa.0.0 = phi double [ %sub.i, %_ZNK8QuantLib4Bond10cleanPriceEv.exit ], [ %retval.0.i, %_ZNK8QuantLib4Bond10dirtyPriceEv.exit ]
  call void @_ZN8QuantLib4DateC1Ev(ptr noundef nonnull align 8 dereferenceable(8) %agg.tmp11)
  %8 = load i64, ptr %agg.tmp11, align 8
  %call13 = call i64 @_ZNK8QuantLib4Bond14settlementDateENS_4DateE(ptr noundef nonnull align 8 dereferenceable(248) %this, i64 %8)
  %call16 = call noundef double @_ZN8QuantLib13BondFunctions5yieldERKNS_4BondENS1_5PriceERKNS_10DayCounterENS_11CompoundingENS_9FrequencyENS_4DateEdmd(ptr noundef nonnull align 8 dereferenceable(248) %this, double %price.sroa.0.0, i32 %priceType, ptr noundef nonnull align 8 dereferenceable(16) %dc, i32 noundef %comp, i32 noundef %freq, i64 %call13, double noundef %accuracy, i64 noundef %maxEvaluations, double noundef %guess)
  br label %cleanup

cleanup:                                          ; preds = %entry, %cond.end
  %retval.0 = phi double [ %call16, %cond.end ], [ 0.000000e+00, %entry ]
  ret double %retval.0
}